target datalayout = "e-m:e-p270:32:32-p271:32:32-p272:64:64-i64:64-i128:128-f80:128-n8:16:32:64-S128"
target triple = "x86_64-unknown-linux-gnu"

%"class.facebook::velox::common::Filter" = type { %"class.facebook::velox::ISerializable", i8, i8, i32 }
%"class.facebook::velox::ISerializable" = type { ptr }
%"class.std::vector.87" = type { %"struct.std::_Vector_base.88" }
%"struct.std::_Vector_base.88" = type { %"struct.std::_Vector_base<long, std::allocator<long>>::_Vector_impl" }
%"struct.std::_Vector_base<long, std::allocator<long>>::_Vector_impl" = type { %"struct.std::_Vector_base<long, std::allocator<long>>::_Vector_impl_data" }
%"struct.std::_Vector_base<long, std::allocator<long>>::_Vector_impl_data" = type { ptr, ptr, ptr }
%"class.facebook::velox::common::BigintValuesUsingHashTable" = type <{ %"class.facebook::velox::common::Filter", i64, i64, %"class.std::vector.87", i8, [7 x i8], %"class.std::vector.87", i32, [4 x i8] }>

; Function Attrs: mustprogress nounwind uwtable
define linkonce_odr noundef nonnull align 8 dereferenceable(8) ptr @_ZNKSt6vectorIlSaIlEEixEm(ptr noundef nonnull align 8 dereferenceable(24) %this, i64 noundef %__n) #3 comdat align 2 {
entry:
  %this.addr = alloca ptr, align 8
  %__n.addr = alloca i64, align 8
  store ptr %this, ptr %this.addr, align 8
  store i64 %__n, ptr %__n.addr, align 8
  %this1 = load ptr, ptr %this.addr, align 8
  %_M_impl = getelementptr inbounds %"struct.std::_Vector_base.88", ptr %this1, i32 0, i32 0
  %_M_start = getelementptr inbounds %"struct.std::_Vector_base<long, std::allocator<long>>::_Vector_impl_data", ptr %_M_impl, i32 0, i32 0
  %0 = load ptr, ptr %_M_start, align 8
  %1 = load i64, ptr %__n.addr, align 8
  %add.ptr = getelementptr inbounds i64, ptr %0, i64 %1
  ret ptr %add.ptr
}

; Function Attrs: mustprogress nounwind uwtable
define noundef zeroext i1 @_ZNK8facebook5velox6common26BigintValuesUsingHashTable9testInt64El(ptr noundef nonnull align 8 dereferenceable(96) %this, i64 noundef %value) unnamed_addr #3 align 2 {
entry:
  %retval = alloca i1, align 1
  %this.addr = alloca ptr, align 8
  %value.addr = alloca i64, align 8
  %pos = alloca i32, align 4
  %i = alloca i32, align 4
  %idx = alloca i32, align 4
  %l = alloca i64, align 8
  store ptr %this, ptr %this.addr, align 8
  store i64 %value, ptr %value.addr, align 8
  %this1 = load ptr, ptr %this.addr, align 8
  %containsEmptyMarker_ = getelementptr inbounds %"class.facebook::velox::common::BigintValuesUsingHashTable", ptr %this1, i32 0, i32 4
  %0 = load i8, ptr %containsEmptyMarker_, align 8
  %tobool = trunc i8 %0 to i1
  br i1 %tobool, label %land.lhs.true, label %if.end

land.lhs.true:                                    ; preds = %entry
  %1 = load i64, ptr %value.addr, align 8
  %cmp = icmp eq i64 %1, -2401053089476968723
  br i1 %cmp, label %if.then, label %if.end

if.then:                                          ; preds = %land.lhs.true
  store i1 true, ptr %retval, align 1
  br label %return

if.end:                                           ; preds = %land.lhs.true, %entry
  %2 = load i64, ptr %value.addr, align 8
  %min_ = getelementptr inbounds %"class.facebook::velox::common::BigintValuesUsingHashTable", ptr %this1, i32 0, i32 1
  %3 = load i64, ptr %min_, align 8
  %cmp2 = icmp slt i64 %2, %3
  br i1 %cmp2, label %if.then4, label %lor.lhs.false

lor.lhs.false:                                    ; preds = %if.end
  %4 = load i64, ptr %value.addr, align 8
  %max_ = getelementptr inbounds %"class.facebook::velox::common::BigintValuesUsingHashTable", ptr %this1, i32 0, i32 2
  %5 = load i64, ptr %max_, align 8
  %cmp3 = icmp sgt i64 %4, %5
  br i1 %cmp3, label %if.then4, label %if.end5

if.then4:                                         ; preds = %lor.lhs.false, %if.end
  store i1 false, ptr %retval, align 1
  br label %return

if.end5:                                          ; preds = %lor.lhs.false
  %6 = load i64, ptr %value.addr, align 8
  %mul = mul i64 %6, -4132994306676758123
  %sizeMask_ = getelementptr inbounds %"class.facebook::velox::common::BigintValuesUsingHashTable", ptr %this1, i32 0, i32 7
  %7 = load i32, ptr %sizeMask_, align 8
  %conv = sext i32 %7 to i64
  %and = and i64 %mul, %conv
  %conv6 = trunc i64 %and to i32
  store i32 %conv6, ptr %pos, align 4
  %8 = load i32, ptr %pos, align 4
  store i32 %8, ptr %i, align 4
  br label %for.cond

for.cond:                                         ; preds = %for.inc, %if.end5
  %9 = load i32, ptr %i, align 4
  %10 = load i32, ptr %pos, align 4
  %sizeMask_7 = getelementptr inbounds %"class.facebook::velox::common::BigintValuesUsingHashTable", ptr %this1, i32 0, i32 7
  %11 = load i32, ptr %sizeMask_7, align 8
  %add = add i32 %10, %11
  %cmp8 = icmp ule i32 %9, %add
  br i1 %cmp8, label %for.body, label %for.end

for.body:                                         ; preds = %for.cond
  %12 = load i32, ptr %i, align 4
  %sizeMask_9 = getelementptr inbounds %"class.facebook::velox::common::BigintValuesUsingHashTable", ptr %this1, i32 0, i32 7
  %13 = load i32, ptr %sizeMask_9, align 8
  %and10 = and i32 %12, %13
  store i32 %and10, ptr %idx, align 4
  %hashTable_ = getelementptr inbounds %"class.facebook::velox::common::BigintValuesUsingHashTable", ptr %this1, i32 0, i32 3
  %14 = load i32, ptr %idx, align 4
  %conv11 = sext i32 %14 to i64
  %call = call noundef nonnull align 8 dereferenceable(8) ptr @_ZNKSt6vectorIlSaIlEEixEm(ptr noundef nonnull align 8 dereferenceable(24) %hashTable_, i64 noundef %conv11) #13
  %15 = load i64, ptr %call, align 8
  store i64 %15, ptr %l, align 8
  %16 = load i64, ptr %l, align 8
  %cmp12 = icmp eq i64 %16, -2401053089476968723
  br i1 %cmp12, label %if.then13, label %if.end14

if.then13:                                        ; preds = %for.body
  store i1 false, ptr %retval, align 1
  br label %return

if.end14:                                         ; preds = %for.body
  %17 = load i64, ptr %l, align 8
  %18 = load i64, ptr %value.addr, align 8
  %cmp15 = icmp eq i64 %17, %18
  br i1 %cmp15, label %if.then16, label %if.end17

if.then16:                                        ; preds = %if.end14
  store i1 true, ptr %retval, align 1
  br label %return

if.end17:                                         ; preds = %if.end14
  br label %for.inc

for.inc:                                          ; preds = %if.end17
  %19 = load i32, ptr %i, align 4
  %inc = add i32 %19, 1
  store i32 %inc, ptr %i, align 4
  br label %for.cond, !llvm.loop !23

for.end:                                          ; preds = %for.cond
  store i1 false, ptr %retval, align 1
  br label %return

return:                                           ; preds = %for.end, %if.then16, %if.then13, %if.then4, %if.then
  %20 = load i1, ptr %retval, align 1
  ret i1 %20
}