; Function Attrs: mustprogress nofree norecurse nosync nounwind willreturn memory(read, inaccessiblemem: none) uwtable
define noundef zeroext i1 @_ZNK8facebook5velox6common26BigintValuesUsingHashTable9testInt64El(ptr nocapture noundef nonnull readonly align 8 dereferenceable(96) %this, i64 noundef %value) unnamed_addr #7 align 2 {
entry:
  %containsEmptyMarker_ = getelementptr inbounds i8, ptr %this, i64 56
  %0 = load i8, ptr %containsEmptyMarker_, align 8
  %1 = and i8 %0, 1
  %tobool = icmp ne i8 %1, 0
  %cmp = icmp eq i64 %value, -2401053089476968723
  %or.cond = and i1 %cmp, %tobool
  br i1 %or.cond, label %return, label %if.end

if.end:                                           ; preds = %entry
  %min_ = getelementptr inbounds i8, ptr %this, i64 16
  %2 = load i64, ptr %min_, align 8
  %cmp2 = icmp sgt i64 %2, %value
  %max_ = getelementptr inbounds i8, ptr %this, i64 24
  %3 = load i64, ptr %max_, align 8
  %cmp3 = icmp slt i64 %3, %value
  %or.cond9 = select i1 %cmp2, i1 true, i1 %cmp3
  br i1 %or.cond9, label %return, label %if.end5

if.end5:                                          ; preds = %if.end
  %sizeMask_ = getelementptr inbounds i8, ptr %this, i64 88
  %4 = load i32, ptr %sizeMask_, align 8
  %5 = trunc i64 %value to i32
  %6 = mul i32 %5, 1540483477
  %conv6 = and i32 %4, %6
  %add = add i32 %conv6, %4
  %cmp8.not10 = icmp ugt i32 %conv6, %add
  br i1 %cmp8.not10, label %return, label %for.body.lr.ph

for.body.lr.ph:                                   ; preds = %if.end5
  %hashTable_ = getelementptr inbounds i8, ptr %this, i64 32
  %7 = load ptr, ptr %hashTable_, align 8
  br label %for.body

for.cond:                                         ; preds = %if.end14
  %inc = add i32 %i.011, 1
  %cmp8.not = icmp ugt i32 %inc, %add
  br i1 %cmp8.not, label %return, label %for.body, !llvm.loop !132

for.body:                                         ; preds = %for.body.lr.ph, %for.cond
  %i.011 = phi i32 [ %conv6, %for.body.lr.ph ], [ %inc, %for.cond ]
  %and10 = and i32 %i.011, %4
  %conv11 = sext i32 %and10 to i64
  %add.ptr.i = getelementptr inbounds i64, ptr %7, i64 %conv11
  %8 = load i64, ptr %add.ptr.i, align 8
  %cmp12 = icmp eq i64 %8, -2401053089476968723
  br i1 %cmp12, label %return, label %if.end14

if.end14:                                         ; preds = %for.body
  %cmp15 = icmp eq i64 %8, %value
  br i1 %cmp15, label %return, label %for.cond

return:                                           ; preds = %for.body, %if.end14, %for.cond, %if.end5, %if.end, %entry
  %retval.0 = phi i1 [ true, %entry ], [ false, %if.end ], [ false, %if.end5 ], [ false, %for.body ], [ true, %if.end14 ], [ false, %for.cond ]
  ret i1 %retval.0
}